; Function Attrs: mustprogress nofree norecurse nosync nounwind willreturn memory(read, inaccessiblemem: none) uwtable
define noundef range(i64 0, -1095216660480) i64 @_ZNK6icu_7721CollationRootElements23lastCEWithPrimaryBeforeEj(ptr noundef nonnull readonly align 8 captures(none) dereferenceable(12) %0, i32 noundef %1) local_unnamed_addr #0 align 2 {
  %3 = icmp eq i32 %1, 0
  br i1 %3, label %74, label %4

4:                                                ; preds = %2
  %5 = load ptr, ptr %0, align 8, !tbaa !3
  %6 = getelementptr inbounds nuw i8, ptr %5, i64 8
  %7 = load i32, ptr %6, align 4, !tbaa !10
  %8 = getelementptr inbounds nuw i8, ptr %0, i64 8
  %9 = load i32, ptr %8, align 8, !tbaa !11
  %10 = add nsw i32 %9, -1
  %11 = add nsw i32 %7, 1
  %12 = icmp slt i32 %11, %10
  br i1 %12, label %.lr.ph, label %_ZNK6icu_7721CollationRootElements5findPEj.exit

.lr.ph:                                           ; preds = %4, %._crit_edge62.i
  %.038.i36 = phi i32 [ %.033..038.i, %._crit_edge62.i ], [ %10, %4 ]
  %.041.i35 = phi i32 [ %.041..033.i, %._crit_edge62.i ], [ %7, %4 ]
  %13 = add nsw i32 %.038.i36, %.041.i35
  %14 = sdiv i32 %13, 2
  %15 = sext i32 %14 to i64
  %16 = getelementptr inbounds i32, ptr %5, i64 %15
  %17 = load i32, ptr %16, align 4, !tbaa !10
  %18 = and i32 %17, 128
  %.not.i = icmp eq i32 %18, 0
  br i1 %.not.i, label %._crit_edge62.i, label %.preheader52.i

.preheader52.i:                                   ; preds = %.lr.ph
  %.02953.i = add nsw i32 %14, 1
  %19 = icmp eq i32 %.02953.i, %.038.i36
  br i1 %19, label %.preheader.i, label %.lr.ph.preheader.i

.lr.ph.preheader.i:                               ; preds = %.preheader52.i
  %20 = add nsw i64 %15, 1
  br label %.lr.ph.i

21:                                               ; preds = %.lr.ph.i
  %indvars.iv.next.i = add nsw i64 %indvars.iv.i, 1
  %22 = trunc nsw i64 %indvars.iv.next.i to i32
  %23 = icmp eq i32 %.038.i36, %22
  br i1 %23, label %.preheader.i, label %.lr.ph.i, !llvm.loop !12

.lr.ph.i:                                         ; preds = %21, %.lr.ph.preheader.i
  %indvars.iv.i = phi i64 [ %20, %.lr.ph.preheader.i ], [ %indvars.iv.next.i, %21 ]
  %24 = getelementptr inbounds i32, ptr %5, i64 %indvars.iv.i
  %25 = load i32, ptr %24, align 4, !tbaa !10
  %26 = and i32 %25, 128
  %27 = icmp eq i32 %26, 0
  br i1 %27, label %._crit_edge62.loopexit90.i, label %21, !llvm.loop !12

.preheader.i:                                     ; preds = %21, %.preheader52.i
  %.13059.i = add nsw i32 %14, -1
  %28 = icmp eq i32 %.13059.i, %.041.i35
  br i1 %28, label %_ZNK6icu_7721CollationRootElements5findPEj.exit, label %.lr.ph61.preheader.i

.lr.ph61.preheader.i:                             ; preds = %.preheader.i
  %29 = sext i32 %.13059.i to i64
  br label %.lr.ph61.i

30:                                               ; preds = %.lr.ph61.i
  %indvars.iv.next71.i = add nsw i64 %indvars.iv70.i, -1
  %31 = trunc nsw i64 %indvars.iv.next71.i to i32
  %32 = icmp eq i32 %.041.i35, %31
  br i1 %32, label %_ZNK6icu_7721CollationRootElements5findPEj.exit, label %.lr.ph61.i, !llvm.loop !14

.lr.ph61.i:                                       ; preds = %30, %.lr.ph61.preheader.i
  %indvars.iv70.i = phi i64 [ %29, %.lr.ph61.preheader.i ], [ %indvars.iv.next71.i, %30 ]
  %33 = getelementptr inbounds i32, ptr %5, i64 %indvars.iv70.i
  %34 = load i32, ptr %33, align 4, !tbaa !10
  %35 = and i32 %34, 128
  %36 = icmp eq i32 %35, 0
  br i1 %36, label %._crit_edge62.loopexit.i, label %30, !llvm.loop !14

._crit_edge62.loopexit.i:                         ; preds = %.lr.ph61.i
  %37 = trunc nsw i64 %indvars.iv70.i to i32
  br label %._crit_edge62.i

._crit_edge62.loopexit90.i:                       ; preds = %.lr.ph.i
  %38 = trunc nsw i64 %indvars.iv.i to i32
  br label %._crit_edge62.i

._crit_edge62.i:                                  ; preds = %._crit_edge62.loopexit90.i, %._crit_edge62.loopexit.i, %.lr.ph
  %.033.i = phi i32 [ %14, %.lr.ph ], [ %37, %._crit_edge62.loopexit.i ], [ %38, %._crit_edge62.loopexit90.i ]
  %.031.i = phi i32 [ %17, %.lr.ph ], [ %34, %._crit_edge62.loopexit.i ], [ %25, %._crit_edge62.loopexit90.i ]
  %39 = and i32 %.031.i, -256
  %40 = icmp ult i32 %1, %39
  %.041..033.i = select i1 %40, i32 %.041.i35, i32 %.033.i
  %.033..038.i = select i1 %40, i32 %.033.i, i32 %.038.i36
  %41 = add nsw i32 %.041..033.i, 1
  %42 = icmp slt i32 %41, %.033..038.i
  br i1 %42, label %.lr.ph, label %_ZNK6icu_7721CollationRootElements5findPEj.exit

_ZNK6icu_7721CollationRootElements5findPEj.exit:  ; preds = %.preheader.i, %._crit_edge62.i, %30, %4
  %.041.i34 = phi i32 [ %7, %4 ], [ %.041.i35, %30 ], [ %.041.i35, %.preheader.i ], [ %.041..033.i, %._crit_edge62.i ]
  %43 = sext i32 %.041.i34 to i64
  %44 = getelementptr inbounds i32, ptr %5, i64 %43
  %45 = load i32, ptr %44, align 4, !tbaa !10
  %46 = and i32 %45, -256
  %47 = icmp eq i32 %1, %46
  br i1 %47, label %48, label %.preheader

48:                                               ; preds = %_ZNK6icu_7721CollationRootElements5findPEj.exit
  %49 = getelementptr i8, ptr %44, i64 -4
  %50 = load i32, ptr %49, align 4, !tbaa !10
  %51 = and i32 %50, 128
  %52 = icmp eq i32 %51, 0
  br i1 %52, label %53, label %55

53:                                               ; preds = %48
  %54 = and i32 %50, -256
  br label %.loopexit

55:                                               ; preds = %48
  %56 = add i32 %.041.i34, -2
  %57 = sext i32 %56 to i64
  br label %58

58:                                               ; preds = %58, %55
  %indvars.iv47 = phi i64 [ %indvars.iv.next48, %58 ], [ %57, %55 ]
  %59 = getelementptr inbounds i32, ptr %5, i64 %indvars.iv47
  %60 = load i32, ptr %59, align 4, !tbaa !10
  %61 = and i32 %60, 128
  %62 = icmp eq i32 %61, 0
  %indvars.iv.next48 = add nsw i64 %indvars.iv47, -1
  br i1 %62, label %63, label %58, !llvm.loop !15

63:                                               ; preds = %58
  %64 = and i32 %60, -256
  br label %.loopexit

.preheader:                                       ; preds = %_ZNK6icu_7721CollationRootElements5findPEj.exit, %.preheader
  %indvars.iv = phi i64 [ %indvars.iv.next, %.preheader ], [ %43, %_ZNK6icu_7721CollationRootElements5findPEj.exit ]
  %.1 = phi i32 [ %66, %.preheader ], [ 83887360, %_ZNK6icu_7721CollationRootElements5findPEj.exit ]
  %indvars.iv.next = add nsw i64 %indvars.iv, 1
  %65 = getelementptr inbounds i32, ptr %5, i64 %indvars.iv.next
  %66 = load i32, ptr %65, align 4, !tbaa !10
  %67 = and i32 %66, 128
  %68 = icmp eq i32 %67, 0
  br i1 %68, label %.loopexit, label %.preheader, !llvm.loop !16

.loopexit:                                        ; preds = %.preheader, %53, %63
  %.022 = phi i32 [ %54, %53 ], [ %64, %63 ], [ %46, %.preheader ]
  %.0 = phi i32 [ 83887360, %53 ], [ %50, %63 ], [ %.1, %.preheader ]
  %69 = zext i32 %.022 to i64
  %70 = shl nuw i64 %69, 32
  %71 = and i32 %.0, -129
  %72 = zext i32 %71 to i64
  %73 = or disjoint i64 %70, %72
  br label %74

74:                                               ; preds = %2, %.loopexit
  %.023 = phi i64 [ %73, %.loopexit ], [ 0, %2 ]
  ret i64 %.023
}